#include <math.h>
#include <stdio.h>
#include <stdlib.h>
#include <string.h>


int main(){
	int i,j,x,y,count=0;
	double n,m;
	char a[1000],b[1000];
	scanf("%lf",&n);
	scanf("%s",&a);
	scanf("%s",&b);
	for(i=0;a[i]!='\0',b[i]!='\0';i++){
		x=strlen(a);
		y=strlen(b);
		if(x!=y){
			printf("error\n");
			
			return 0;
			break;
		}
		for(j=0;a[j]!='\0';j++){
			if(a[j]!='A' && a[j]!='T'&& a[j]!='G'&& a[j]!='C'){
				printf("error\n");
			
				return 0;
					break;
			}
			if(b[j]!='A' && b[j]!='T'&& b[j]!='G'&& b[j]!='C'){
				printf("error\n");
			
				return 0 ;
					break;
			}
		}

		if(a[i]==b[i]){
			count++;
		}
	}
		m=((1.0)*count)/x;
		if(m>=n){
			printf("yes");
		}else{
			printf("no");
		}


	return 0 ;
}