; ModuleID = '5/1233.c'
source_filename = "5/1233.c"
target datalayout = "e-m:e-p270:32:32-p271:32:32-p272:64:64-i64:64-f80:128-n8:16:32:64-S128"
target triple = "x86_64-pc-linux-gnu"

@.str = private unnamed_addr constant [4 x i8] c"%lf\00", align 1
@.str.1 = private unnamed_addr constant [3 x i8] c"%s\00", align 1
@.str.2 = private unnamed_addr constant [7 x i8] c"error\0A\00", align 1
@.str.3 = private unnamed_addr constant [4 x i8] c"yes\00", align 1
@.str.4 = private unnamed_addr constant [3 x i8] c"no\00", align 1

; Function Attrs: noinline nounwind uwtable
define dso_local i32 @main() #0 {
  %1 = alloca i32, align 4
  %2 = alloca i32, align 4
  %3 = alloca i32, align 4
  %4 = alloca i32, align 4
  %5 = alloca i32, align 4
  %6 = alloca i32, align 4
  %7 = alloca double, align 8
  %8 = alloca double, align 8
  %9 = alloca [1000 x i8], align 16
  %10 = alloca [1000 x i8], align 16
  store i32 0, i32* %1, align 4
  store i32 0, i32* %6, align 4
  %11 = call i32 (i8*, ...) @__isoc99_scanf(i8* getelementptr inbounds ([4 x i8], [4 x i8]* @.str, i64 0, i64 0), double* %7)
  %12 = call i32 (i8*, ...) @__isoc99_scanf(i8* getelementptr inbounds ([3 x i8], [3 x i8]* @.str.1, i64 0, i64 0), [1000 x i8]* %9)
  %13 = call i32 (i8*, ...) @__isoc99_scanf(i8* getelementptr inbounds ([3 x i8], [3 x i8]* @.str.1, i64 0, i64 0), [1000 x i8]* %10)
  store i32 0, i32* %2, align 4
  br label %14

14:                                               ; preds = %128, %0
  %15 = load i32, i32* %2, align 4
  %16 = sext i32 %15 to i64
  %17 = getelementptr inbounds [1000 x i8], [1000 x i8]* %9, i64 0, i64 %16
  %18 = load i8, i8* %17, align 1
  %19 = sext i8 %18 to i32
  %20 = icmp ne i32 %19, 0
  %21 = zext i1 %20 to i32
  %22 = load i32, i32* %2, align 4
  %23 = sext i32 %22 to i64
  %24 = getelementptr inbounds [1000 x i8], [1000 x i8]* %10, i64 0, i64 %23
  %25 = load i8, i8* %24, align 1
  %26 = sext i8 %25 to i32
  %27 = icmp ne i32 %26, 0
  br i1 %27, label %28, label %131

28:                                               ; preds = %14
  %29 = getelementptr inbounds [1000 x i8], [1000 x i8]* %9, i64 0, i64 0
  %30 = call i64 @strlen(i8* %29) #3
  %31 = trunc i64 %30 to i32
  store i32 %31, i32* %4, align 4
  %32 = getelementptr inbounds [1000 x i8], [1000 x i8]* %10, i64 0, i64 0
  %33 = call i64 @strlen(i8* %32) #3
  %34 = trunc i64 %33 to i32
  store i32 %34, i32* %5, align 4
  %35 = load i32, i32* %4, align 4
  %36 = load i32, i32* %5, align 4
  %37 = icmp ne i32 %35, %36
  br i1 %37, label %38, label %40

38:                                               ; preds = %28
  %39 = call i32 (i8*, ...) @printf(i8* getelementptr inbounds ([7 x i8], [7 x i8]* @.str.2, i64 0, i64 0))
  store i32 0, i32* %1, align 4
  br label %146

40:                                               ; preds = %28
  store i32 0, i32* %3, align 4
  br label %41

41:                                               ; preds = %109, %40
  %42 = load i32, i32* %3, align 4
  %43 = sext i32 %42 to i64
  %44 = getelementptr inbounds [1000 x i8], [1000 x i8]* %9, i64 0, i64 %43
  %45 = load i8, i8* %44, align 1
  %46 = sext i8 %45 to i32
  %47 = icmp ne i32 %46, 0
  br i1 %47, label %48, label %112

48:                                               ; preds = %41
  %49 = load i32, i32* %3, align 4
  %50 = sext i32 %49 to i64
  %51 = getelementptr inbounds [1000 x i8], [1000 x i8]* %9, i64 0, i64 %50
  %52 = load i8, i8* %51, align 1
  %53 = sext i8 %52 to i32
  %54 = icmp ne i32 %53, 65
  br i1 %54, label %55, label %78

55:                                               ; preds = %48
  %56 = load i32, i32* %3, align 4
  %57 = sext i32 %56 to i64
  %58 = getelementptr inbounds [1000 x i8], [1000 x i8]* %9, i64 0, i64 %57
  %59 = load i8, i8* %58, align 1
  %60 = sext i8 %59 to i32
  %61 = icmp ne i32 %60, 84
  br i1 %61, label %62, label %78

62:                                               ; preds = %55
  %63 = load i32, i32* %3, align 4
  %64 = sext i32 %63 to i64
  %65 = getelementptr inbounds [1000 x i8], [1000 x i8]* %9, i64 0, i64 %64
  %66 = load i8, i8* %65, align 1
  %67 = sext i8 %66 to i32
  %68 = icmp ne i32 %67, 71
  br i1 %68, label %69, label %78

69:                                               ; preds = %62
  %70 = load i32, i32* %3, align 4
  %71 = sext i32 %70 to i64
  %72 = getelementptr inbounds [1000 x i8], [1000 x i8]* %9, i64 0, i64 %71
  %73 = load i8, i8* %72, align 1
  %74 = sext i8 %73 to i32
  %75 = icmp ne i32 %74, 67
  br i1 %75, label %76, label %78

76:                                               ; preds = %69
  %77 = call i32 (i8*, ...) @printf(i8* getelementptr inbounds ([7 x i8], [7 x i8]* @.str.2, i64 0, i64 0))
  store i32 0, i32* %1, align 4
  br label %146

78:                                               ; preds = %69, %62, %55, %48
  %79 = load i32, i32* %3, align 4
  %80 = sext i32 %79 to i64
  %81 = getelementptr inbounds [1000 x i8], [1000 x i8]* %10, i64 0, i64 %80
  %82 = load i8, i8* %81, align 1
  %83 = sext i8 %82 to i32
  %84 = icmp ne i32 %83, 65
  br i1 %84, label %85, label %108

85:                                               ; preds = %78
  %86 = load i32, i32* %3, align 4
  %87 = sext i32 %86 to i64
  %88 = getelementptr inbounds [1000 x i8], [1000 x i8]* %10, i64 0, i64 %87
  %89 = load i8, i8* %88, align 1
  %90 = sext i8 %89 to i32
  %91 = icmp ne i32 %90, 84
  br i1 %91, label %92, label %108

92:                                               ; preds = %85
  %93 = load i32, i32* %3, align 4
  %94 = sext i32 %93 to i64
  %95 = getelementptr inbounds [1000 x i8], [1000 x i8]* %10, i64 0, i64 %94
  %96 = load i8, i8* %95, align 1
  %97 = sext i8 %96 to i32
  %98 = icmp ne i32 %97, 71
  br i1 %98, label %99, label %108

99:                                               ; preds = %92
  %100 = load i32, i32* %3, align 4
  %101 = sext i32 %100 to i64
  %102 = getelementptr inbounds [1000 x i8], [1000 x i8]* %10, i64 0, i64 %101
  %103 = load i8, i8* %102, align 1
  %104 = sext i8 %103 to i32
  %105 = icmp ne i32 %104, 67
  br i1 %105, label %106, label %108

106:                                              ; preds = %99
  %107 = call i32 (i8*, ...) @printf(i8* getelementptr inbounds ([7 x i8], [7 x i8]* @.str.2, i64 0, i64 0))
  store i32 0, i32* %1, align 4
  br label %146

108:                                              ; preds = %99, %92, %85, %78
  br label %109

109:                                              ; preds = %108
  %110 = load i32, i32* %3, align 4
  %111 = add nsw i32 %110, 1
  store i32 %111, i32* %3, align 4
  br label %41

112:                                              ; preds = %41
  %113 = load i32, i32* %2, align 4
  %114 = sext i32 %113 to i64
  %115 = getelementptr inbounds [1000 x i8], [1000 x i8]* %9, i64 0, i64 %114
  %116 = load i8, i8* %115, align 1
  %117 = sext i8 %116 to i32
  %118 = load i32, i32* %2, align 4
  %119 = sext i32 %118 to i64
  %120 = getelementptr inbounds [1000 x i8], [1000 x i8]* %10, i64 0, i64 %119
  %121 = load i8, i8* %120, align 1
  %122 = sext i8 %121 to i32
  %123 = icmp eq i32 %117, %122
  br i1 %123, label %124, label %127

124:                                              ; preds = %112
  %125 = load i32, i32* %6, align 4
  %126 = add nsw i32 %125, 1
  store i32 %126, i32* %6, align 4
  br label %127

127:                                              ; preds = %124, %112
  br label %128

128:                                              ; preds = %127
  %129 = load i32, i32* %2, align 4
  %130 = add nsw i32 %129, 1
  store i32 %130, i32* %2, align 4
  br label %14

131:                                              ; preds = %14
  %132 = load i32, i32* %6, align 4
  %133 = sitofp i32 %132 to double
  %134 = fmul double 1.000000e+00, %133
  %135 = load i32, i32* %4, align 4
  %136 = sitofp i32 %135 to double
  %137 = fdiv double %134, %136
  store double %137, double* %8, align 8
  %138 = load double, double* %8, align 8
  %139 = load double, double* %7, align 8
  %140 = fcmp oge double %138, %139
  br i1 %140, label %141, label %143

141:                                              ; preds = %131
  %142 = call i32 (i8*, ...) @printf(i8* getelementptr inbounds ([4 x i8], [4 x i8]* @.str.3, i64 0, i64 0))
  br label %145

143:                                              ; preds = %131
  %144 = call i32 (i8*, ...) @printf(i8* getelementptr inbounds ([3 x i8], [3 x i8]* @.str.4, i64 0, i64 0))
  br label %145

145:                                              ; preds = %143, %141
  store i32 0, i32* %1, align 4
  br label %146

146:                                              ; preds = %145, %106, %76, %38
  %147 = load i32, i32* %1, align 4
  ret i32 %147
}

declare dso_local i32 @__isoc99_scanf(i8*, ...) #1

; Function Attrs: nounwind readonly
declare dso_local i64 @strlen(i8*) #2

declare dso_local i32 @printf(i8*, ...) #1


!llvm.module.flags = !{!0}
!llvm.ident = !{!1}

!0 = !{i32 1, !"wchar_size", i32 4}
!1 = !{!"clang version 10.0.0-4ubuntu1 "}
